; Function Attrs: mustprogress uwtable
define hidden void @_ZN3smt17theory_array_full15set_prop_upwardEiPNS_12theory_array8var_dataE(ptr noundef nonnull align 8 dereferenceable(608) %this, i32 noundef %v, ptr noundef %d) unnamed_addr #3 align 2 {
entry:
  %m_params = getelementptr inbounds i8, ptr %this, i64 264
  %0 = load ptr, ptr %m_params, align 8
  %m_array_always_prop_upward = getelementptr inbounds i8, ptr %0, i64 18
  %1 = load i8, ptr %m_array_always_prop_upward, align 2
  %2 = and i8 %1, 1
  %tobool.not = icmp eq i8 %2, 0
  br i1 %tobool.not, label %lor.lhs.false, label %if.then

lor.lhs.false:                                    ; preds = %entry
  %3 = load ptr, ptr %d, align 8
  %cmp.i = icmp eq ptr %3, null
  br i1 %cmp.i, label %if.else, label %_ZNK6vectorIPN3smt5enodeELb0EjE5emptyEv.exit

_ZNK6vectorIPN3smt5enodeELb0EjE5emptyEv.exit:     ; preds = %lor.lhs.false
  %arrayidx.i = getelementptr inbounds i8, ptr %3, i64 -4
  %4 = load i32, ptr %arrayidx.i, align 4
  %cmp3.i = icmp eq i32 %4, 0
  br i1 %cmp3.i, label %if.else, label %if.then

if.then:                                          ; preds = %_ZNK6vectorIPN3smt5enodeELb0EjE5emptyEv.exit, %entry
  tail call void @_ZN3smt12theory_array15set_prop_upwardEiPNS0_8var_dataE(ptr noundef nonnull align 8 dereferenceable(444) %this, i32 noundef %v, ptr noundef %d)
  br label %if.end

if.else:                                          ; preds = %lor.lhs.false, %_ZNK6vectorIPN3smt5enodeELb0EjE5emptyEv.exit
  %m_var_data_full = getelementptr inbounds i8, ptr %this, i64 448
  %5 = load ptr, ptr %m_var_data_full, align 8
  %idxprom.i = zext i32 %v to i64
  %arrayidx.i6 = getelementptr inbounds ptr, ptr %5, i64 %idxprom.i
  %6 = load ptr, ptr %arrayidx.i6, align 8
  %7 = load ptr, ptr %6, align 8
  %cmp.i7 = icmp eq ptr %7, null
  br i1 %cmp.i7, label %if.end, label %_ZNK6vectorIPN3smt5enodeELb0EjE4sizeEv.exit

_ZNK6vectorIPN3smt5enodeELb0EjE4sizeEv.exit:      ; preds = %if.else
  %arrayidx.i8 = getelementptr inbounds i8, ptr %7, i64 -4
  %8 = load i32, ptr %arrayidx.i8, align 4
  %cmp11.not = icmp eq i32 %8, 0
  br i1 %cmp11.not, label %if.end, label %for.body.preheader

for.body.preheader:                               ; preds = %_ZNK6vectorIPN3smt5enodeELb0EjE4sizeEv.exit
  %wide.trip.count = zext i32 %8 to i64
  br label %for.body

for.body:                                         ; preds = %for.body.preheader, %for.body
  %indvars.iv = phi i64 [ 0, %for.body.preheader ], [ %indvars.iv.next, %for.body ]
  %9 = load ptr, ptr %6, align 8
  %arrayidx.i10 = getelementptr inbounds ptr, ptr %9, i64 %indvars.iv
  %10 = load ptr, ptr %arrayidx.i10, align 8
  %vtable = load ptr, ptr %this, align 8
  %vfn = getelementptr inbounds i8, ptr %vtable, i64 384
  %11 = load ptr, ptr %vfn, align 8
  tail call void %11(ptr noundef nonnull align 8 dereferenceable(608) %this, ptr noundef %10)
  %indvars.iv.next = add nuw nsw i64 %indvars.iv, 1
  %exitcond.not = icmp eq i64 %indvars.iv.next, %wide.trip.count
  br i1 %exitcond.not, label %if.end, label %for.body, !llvm.loop !19

if.end:                                           ; preds = %for.body, %if.else, %_ZNK6vectorIPN3smt5enodeELb0EjE4sizeEv.exit, %if.then
  ret void
}